#include <math.h>
#include <stdio.h>
#include <stdlib.h>
#include <string.h>

int main(){
	int n,i;
	scanf("%d ",&n);
	for(i=1;i>0;i++){
		if(n==1){
			printf("End");
			break;
		}
		if(n%2==0){
			n=n/2;
			printf("%d/2=%d\n",2*n,n);
			continue;
		}else{
			printf("%d",n);
			n=n*3+1;
			printf("*3+1=%d\n",n);
			continue;
		}
	}
	return 0;
}